; ModuleID = '20/1120.c'
source_filename = "20/1120.c"
target datalayout = "e-m:e-p270:32:32-p271:32:32-p272:64:64-i64:64-f80:128-n8:16:32:64-S128"
target triple = "x86_64-pc-linux-gnu"

@.str = private unnamed_addr constant [5 x i8] c"%s%s\00", align 1

; Function Attrs: noinline nounwind uwtable
define dso_local i32 @main() #0 {
  %1 = alloca i32, align 4
  %2 = alloca [50 x [100 x i8]], align 16
  %3 = alloca [50 x [100 x i8]], align 16
  %4 = alloca [50 x [200 x i8]], align 16
  %5 = alloca [50 x [100 x i8]], align 16
  %6 = alloca i32, align 4
  %7 = alloca i32, align 4
  %8 = alloca i32, align 4
  %9 = alloca i32, align 4
  %10 = alloca [50 x i32], align 16
  store i32 0, i32* %1, align 4
  %11 = bitcast [50 x [100 x i8]]* %2 to i8*
  call void @llvm.memset.p0i8.i64(i8* align 16 %11, i8 0, i64 5000, i1 false)
  %12 = bitcast [50 x [100 x i8]]* %3 to i8*
  call void @llvm.memset.p0i8.i64(i8* align 16 %12, i8 0, i64 5000, i1 false)
  %13 = bitcast [50 x [200 x i8]]* %4 to i8*
  call void @llvm.memset.p0i8.i64(i8* align 16 %13, i8 0, i64 10000, i1 false)
  %14 = bitcast [50 x [100 x i8]]* %5 to i8*
  call void @llvm.memset.p0i8.i64(i8* align 16 %14, i8 0, i64 5000, i1 false)
  store i32 0, i32* %9, align 4
  %15 = bitcast [50 x i32]* %10 to i8*
  call void @llvm.memset.p0i8.i64(i8* align 16 %15, i8 0, i64 200, i1 false)
  br label %16

16:                                               ; preds = %72, %0
  %17 = load i32, i32* %9, align 4
  %18 = sext i32 %17 to i64
  %19 = getelementptr inbounds [50 x [100 x i8]], [50 x [100 x i8]]* %2, i64 0, i64 %18
  %20 = getelementptr inbounds [100 x i8], [100 x i8]* %19, i64 0, i64 0
  %21 = load i32, i32* %9, align 4
  %22 = sext i32 %21 to i64
  %23 = getelementptr inbounds [50 x [100 x i8]], [50 x [100 x i8]]* %3, i64 0, i64 %22
  %24 = getelementptr inbounds [100 x i8], [100 x i8]* %23, i64 0, i64 0
  %25 = call i32 (i8*, ...) @__isoc99_scanf(i8* getelementptr inbounds ([5 x i8], [5 x i8]* @.str, i64 0, i64 0), i8* %20, i8* %24)
  %26 = icmp ne i32 %25, -1
  br i1 %26, label %27, label %75

27:                                               ; preds = %16
  %28 = load i32, i32* %9, align 4
  %29 = sext i32 %28 to i64
  %30 = getelementptr inbounds [50 x [100 x i8]], [50 x [100 x i8]]* %2, i64 0, i64 %29
  %31 = getelementptr inbounds [100 x i8], [100 x i8]* %30, i64 0, i64 0
  %32 = load i8, i8* %31, align 4
  %33 = sext i8 %32 to i32
  store i32 %33, i32* %8, align 4
  store i32 1, i32* %7, align 4
  br label %34

34:                                               ; preds = %69, %27
  %35 = load i32, i32* %9, align 4
  %36 = sext i32 %35 to i64
  %37 = getelementptr inbounds [50 x [100 x i8]], [50 x [100 x i8]]* %2, i64 0, i64 %36
  %38 = load i32, i32* %7, align 4
  %39 = sext i32 %38 to i64
  %40 = getelementptr inbounds [100 x i8], [100 x i8]* %37, i64 0, i64 %39
  %41 = load i8, i8* %40, align 1
  %42 = sext i8 %41 to i32
  %43 = icmp ne i32 %42, 0
  br i1 %43, label %44, label %72

44:                                               ; preds = %34
  %45 = load i32, i32* %8, align 4
  %46 = load i32, i32* %9, align 4
  %47 = sext i32 %46 to i64
  %48 = getelementptr inbounds [50 x [100 x i8]], [50 x [100 x i8]]* %2, i64 0, i64 %47
  %49 = load i32, i32* %7, align 4
  %50 = sext i32 %49 to i64
  %51 = getelementptr inbounds [100 x i8], [100 x i8]* %48, i64 0, i64 %50
  %52 = load i8, i8* %51, align 1
  %53 = sext i8 %52 to i32
  %54 = icmp slt i32 %45, %53
  br i1 %54, label %55, label %68

55:                                               ; preds = %44
  %56 = load i32, i32* %7, align 4
  %57 = load i32, i32* %9, align 4
  %58 = sext i32 %57 to i64
  %59 = getelementptr inbounds [50 x i32], [50 x i32]* %10, i64 0, i64 %58
  store i32 %56, i32* %59, align 4
  %60 = load i32, i32* %9, align 4
  %61 = sext i32 %60 to i64
  %62 = getelementptr inbounds [50 x [100 x i8]], [50 x [100 x i8]]* %2, i64 0, i64 %61
  %63 = load i32, i32* %7, align 4
  %64 = sext i32 %63 to i64
  %65 = getelementptr inbounds [100 x i8], [100 x i8]* %62, i64 0, i64 %64
  %66 = load i8, i8* %65, align 1
  %67 = sext i8 %66 to i32
  store i32 %67, i32* %8, align 4
  br label %68

68:                                               ; preds = %55, %44
  br label %69

69:                                               ; preds = %68
  %70 = load i32, i32* %7, align 4
  %71 = add nsw i32 %70, 1
  store i32 %71, i32* %7, align 4
  br label %34

72:                                               ; preds = %34
  %73 = load i32, i32* %9, align 4
  %74 = add nsw i32 %73, 1
  store i32 %74, i32* %9, align 4
  br label %16

75:                                               ; preds = %16
  store i32 0, i32* %6, align 4
  br label %76

76:                                               ; preds = %157, %75
  %77 = load i32, i32* %6, align 4
  %78 = load i32, i32* %9, align 4
  %79 = icmp slt i32 %77, %78
  br i1 %79, label %80, label %160

80:                                               ; preds = %76
  store i32 0, i32* %7, align 4
  br label %81

81:                                               ; preds = %102, %80
  %82 = load i32, i32* %7, align 4
  %83 = load i32, i32* %6, align 4
  %84 = sext i32 %83 to i64
  %85 = getelementptr inbounds [50 x i32], [50 x i32]* %10, i64 0, i64 %84
  %86 = load i32, i32* %85, align 4
  %87 = icmp sle i32 %82, %86
  br i1 %87, label %88, label %105

88:                                               ; preds = %81
  %89 = load i32, i32* %6, align 4
  %90 = sext i32 %89 to i64
  %91 = getelementptr inbounds [50 x [100 x i8]], [50 x [100 x i8]]* %2, i64 0, i64 %90
  %92 = load i32, i32* %7, align 4
  %93 = sext i32 %92 to i64
  %94 = getelementptr inbounds [100 x i8], [100 x i8]* %91, i64 0, i64 %93
  %95 = load i8, i8* %94, align 1
  %96 = load i32, i32* %6, align 4
  %97 = sext i32 %96 to i64
  %98 = getelementptr inbounds [50 x [200 x i8]], [50 x [200 x i8]]* %4, i64 0, i64 %97
  %99 = load i32, i32* %7, align 4
  %100 = sext i32 %99 to i64
  %101 = getelementptr inbounds [200 x i8], [200 x i8]* %98, i64 0, i64 %100
  store i8 %95, i8* %101, align 1
  br label %102

102:                                              ; preds = %88
  %103 = load i32, i32* %7, align 4
  %104 = add nsw i32 %103, 1
  store i32 %104, i32* %7, align 4
  br label %81

105:                                              ; preds = %81
  br label %106

106:                                              ; preds = %135, %105
  %107 = load i32, i32* %7, align 4
  %108 = sext i32 %107 to i64
  %109 = load i32, i32* %6, align 4
  %110 = sext i32 %109 to i64
  %111 = getelementptr inbounds [50 x [100 x i8]], [50 x [100 x i8]]* %2, i64 0, i64 %110
  %112 = getelementptr inbounds [100 x i8], [100 x i8]* %111, i64 0, i64 0
  %113 = call i64 @strlen(i8* %112) #5
  %114 = icmp ult i64 %108, %113
  br i1 %114, label %115, label %138

115:                                              ; preds = %106
  %116 = load i32, i32* %6, align 4
  %117 = sext i32 %116 to i64
  %118 = getelementptr inbounds [50 x [100 x i8]], [50 x [100 x i8]]* %2, i64 0, i64 %117
  %119 = load i32, i32* %7, align 4
  %120 = sext i32 %119 to i64
  %121 = getelementptr inbounds [100 x i8], [100 x i8]* %118, i64 0, i64 %120
  %122 = load i8, i8* %121, align 1
  %123 = load i32, i32* %6, align 4
  %124 = sext i32 %123 to i64
  %125 = getelementptr inbounds [50 x [100 x i8]], [50 x [100 x i8]]* %5, i64 0, i64 %124
  %126 = load i32, i32* %7, align 4
  %127 = load i32, i32* %6, align 4
  %128 = sext i32 %127 to i64
  %129 = getelementptr inbounds [50 x i32], [50 x i32]* %10, i64 0, i64 %128
  %130 = load i32, i32* %129, align 4
  %131 = sub nsw i32 %126, %130
  %132 = sub nsw i32 %131, 1
  %133 = sext i32 %132 to i64
  %134 = getelementptr inbounds [100 x i8], [100 x i8]* %125, i64 0, i64 %133
  store i8 %122, i8* %134, align 1
  br label %135

135:                                              ; preds = %115
  %136 = load i32, i32* %7, align 4
  %137 = add nsw i32 %136, 1
  store i32 %137, i32* %7, align 4
  br label %106

138:                                              ; preds = %106
  %139 = load i32, i32* %6, align 4
  %140 = sext i32 %139 to i64
  %141 = getelementptr inbounds [50 x [200 x i8]], [50 x [200 x i8]]* %4, i64 0, i64 %140
  %142 = getelementptr inbounds [200 x i8], [200 x i8]* %141, i64 0, i64 0
  %143 = load i32, i32* %6, align 4
  %144 = sext i32 %143 to i64
  %145 = getelementptr inbounds [50 x [100 x i8]], [50 x [100 x i8]]* %3, i64 0, i64 %144
  %146 = getelementptr inbounds [100 x i8], [100 x i8]* %145, i64 0, i64 0
  %147 = call i8* @strcat(i8* %142, i8* %146) #6
  %148 = load i32, i32* %6, align 4
  %149 = sext i32 %148 to i64
  %150 = getelementptr inbounds [50 x [200 x i8]], [50 x [200 x i8]]* %4, i64 0, i64 %149
  %151 = getelementptr inbounds [200 x i8], [200 x i8]* %150, i64 0, i64 0
  %152 = load i32, i32* %6, align 4
  %153 = sext i32 %152 to i64
  %154 = getelementptr inbounds [50 x [100 x i8]], [50 x [100 x i8]]* %5, i64 0, i64 %153
  %155 = getelementptr inbounds [100 x i8], [100 x i8]* %154, i64 0, i64 0
  %156 = call i8* @strcat(i8* %151, i8* %155) #6
  br label %157

157:                                              ; preds = %138
  %158 = load i32, i32* %6, align 4
  %159 = add nsw i32 %158, 1
  store i32 %159, i32* %6, align 4
  br label %76

160:                                              ; preds = %76
  store i32 0, i32* %6, align 4
  br label %161

161:                                              ; preds = %171, %160
  %162 = load i32, i32* %6, align 4
  %163 = load i32, i32* %9, align 4
  %164 = icmp slt i32 %162, %163
  br i1 %164, label %165, label %174

165:                                              ; preds = %161
  %166 = load i32, i32* %6, align 4
  %167 = sext i32 %166 to i64
  %168 = getelementptr inbounds [50 x [200 x i8]], [50 x [200 x i8]]* %4, i64 0, i64 %167
  %169 = getelementptr inbounds [200 x i8], [200 x i8]* %168, i64 0, i64 0
  %170 = call i32 @puts(i8* %169)
  br label %171

171:                                              ; preds = %165
  %172 = load i32, i32* %6, align 4
  %173 = add nsw i32 %172, 1
  store i32 %173, i32* %6, align 4
  br label %161

174:                                              ; preds = %161
  ret i32 0
}

; Function Attrs: argmemonly nounwind willreturn
declare void @llvm.memset.p0i8.i64(i8* nocapture writeonly, i8, i64, i1 immarg) #1

declare dso_local i32 @__isoc99_scanf(i8*, ...) #2

; Function Attrs: nounwind readonly
declare dso_local i64 @strlen(i8*) #3

; Function Attrs: nounwind
declare dso_local i8* @strcat(i8*, i8*) #4

declare dso_local i32 @puts(i8*) #2


!llvm.module.flags = !{!0}
!llvm.ident = !{!1}

!0 = !{i32 1, !"wchar_size", i32 4}
!1 = !{!"clang version 10.0.0-4ubuntu1 "}
